; ModuleID = 'source-C-CXX/6/416.c'
source_filename = "source-C-CXX/6/416.c"
target datalayout = "e-m:e-p270:32:32-p271:32:32-p272:64:64-i64:64-f80:128-n8:16:32:64-S128"
target triple = "x86_64-pc-linux-gnu"

@.str = private unnamed_addr constant [3 x i8] c"%s\00", align 1

; Function Attrs: nofree nounwind sspstrong uwtable
define dso_local i32 @main() local_unnamed_addr #0 {
  %1 = alloca [257 x i8], align 16
  %2 = alloca [257 x i8], align 16
  %3 = alloca [257 x i8], align 16
  %4 = alloca [257 x i8], align 16
  %5 = getelementptr inbounds [257 x i8], [257 x i8]* %4, i64 0, i64 0
  %6 = getelementptr inbounds [257 x i8], [257 x i8]* %1, i64 0, i64 0
  call void @llvm.lifetime.start.p0i8(i64 257, i8* nonnull %6) #7
  call void @llvm.memset.p0i8.i64(i8* noundef nonnull align 16 dereferenceable(257) %6, i8 0, i64 257, i1 false)
  %7 = getelementptr inbounds [257 x i8], [257 x i8]* %2, i64 0, i64 0
  call void @llvm.lifetime.start.p0i8(i64 257, i8* nonnull %7) #7
  call void @llvm.memset.p0i8.i64(i8* noundef nonnull align 16 dereferenceable(257) %7, i8 0, i64 257, i1 false)
  %8 = getelementptr inbounds [257 x i8], [257 x i8]* %3, i64 0, i64 0
  call void @llvm.lifetime.start.p0i8(i64 257, i8* nonnull %8) #7
  call void @llvm.memset.p0i8.i64(i8* noundef nonnull align 16 dereferenceable(257) %8, i8 0, i64 257, i1 false)
  %9 = getelementptr inbounds [257 x i8], [257 x i8]* %4, i64 0, i64 0
  call void @llvm.lifetime.start.p0i8(i64 257, i8* nonnull %9) #7
  call void @llvm.memset.p0i8.i64(i8* noundef nonnull align 16 dereferenceable(257) %9, i8 0, i64 257, i1 false)
  %10 = call i32 (i8*, ...) @__isoc99_scanf(i8* getelementptr inbounds ([3 x i8], [3 x i8]* @.str, i64 0, i64 0), i8* nonnull %6)
  %11 = call i32 (i8*, ...) @__isoc99_scanf(i8* getelementptr inbounds ([3 x i8], [3 x i8]* @.str, i64 0, i64 0), i8* nonnull %7)
  %12 = call i32 (i8*, ...) @__isoc99_scanf(i8* getelementptr inbounds ([3 x i8], [3 x i8]* @.str, i64 0, i64 0), i8* nonnull %8)
  %13 = call i64 @strlen(i8* noundef nonnull %6) #8
  %14 = trunc i64 %13 to i32
  %15 = call i64 @strlen(i8* noundef nonnull %7) #8
  %16 = trunc i64 %15 to i32
  %17 = sub nsw i32 %14, %16
  %18 = icmp slt i32 %17, 0
  br i1 %18, label %51, label %19

19:                                               ; preds = %0
  %20 = icmp sgt i32 %16, 0
  br i1 %20, label %21, label %39

21:                                               ; preds = %19
  %22 = and i64 %15, 4294967295
  %23 = add i64 %13, 1
  %24 = sub i64 %23, %15
  %25 = and i64 %24, 4294967295
  %26 = getelementptr inbounds [257 x i8], [257 x i8]* %1, i64 0, i64 0
  call void @llvm.memcpy.p0i8.p0i8.i64(i8* nonnull align 16 %5, i8* nonnull align 16 %26, i64 %22, i1 false)
  %27 = call i32 @strcmp(i8* noundef nonnull %9, i8* noundef nonnull %7) #8
  %28 = icmp eq i32 %27, 0
  br i1 %28, label %44, label %33

29:                                               ; preds = %33
  %30 = getelementptr [257 x i8], [257 x i8]* %1, i64 0, i64 %37
  call void @llvm.memcpy.p0i8.p0i8.i64(i8* nonnull align 16 %5, i8* align 1 %30, i64 %22, i1 false)
  %31 = call i32 @strcmp(i8* noundef nonnull %9, i8* noundef nonnull %7) #8
  %32 = icmp eq i32 %31, 0
  br i1 %32, label %42, label %33, !llvm.loop !5

33:                                               ; preds = %21, %29
  %34 = phi i32 [ %36, %29 ], [ 0, %21 ]
  %35 = phi i64 [ %37, %29 ], [ 0, %21 ]
  %36 = add nuw nsw i32 %34, 1
  %37 = add nuw nsw i64 %35, 1
  %38 = icmp eq i64 %37, %25
  br i1 %38, label %51, label %29, !llvm.loop !5

39:                                               ; preds = %19
  %40 = call i32 @strcmp(i8* noundef nonnull %9, i8* noundef nonnull %7) #8
  %41 = icmp eq i32 %40, 0
  br i1 %41, label %61, label %51

42:                                               ; preds = %29
  %43 = icmp sge i32 %34, %17
  br label %44

44:                                               ; preds = %42, %21
  %45 = phi i1 [ %43, %42 ], [ false, %21 ]
  %46 = phi i32 [ %36, %42 ], [ 0, %21 ]
  br i1 %45, label %51, label %47

47:                                               ; preds = %44
  %48 = icmp eq i32 %46, 0
  br i1 %48, label %61, label %49

49:                                               ; preds = %47
  %50 = zext i32 %46 to i64
  br label %53

51:                                               ; preds = %33, %39, %0, %44
  %52 = call i32 (i8*, ...) @printf(i8* nonnull dereferenceable(1) getelementptr inbounds ([3 x i8], [3 x i8]* @.str, i64 0, i64 0), i8* nonnull %6)
  br label %78

53:                                               ; preds = %49, %53
  %54 = phi i64 [ 0, %49 ], [ %59, %53 ]
  %55 = getelementptr inbounds [257 x i8], [257 x i8]* %1, i64 0, i64 %54
  %56 = load i8, i8* %55, align 1, !tbaa !7
  %57 = sext i8 %56 to i32
  %58 = call i32 @putchar(i32 %57)
  %59 = add nuw nsw i64 %54, 1
  %60 = icmp eq i64 %59, %50
  br i1 %60, label %61, label %53, !llvm.loop !10

61:                                               ; preds = %53, %39, %47
  %62 = phi i32 [ 0, %47 ], [ 0, %39 ], [ %46, %53 ]
  %63 = call i32 (i8*, ...) @printf(i8* nonnull dereferenceable(1) getelementptr inbounds ([3 x i8], [3 x i8]* @.str, i64 0, i64 0), i8* nonnull %8)
  %64 = add i32 %62, %16
  %65 = sext i32 %64 to i64
  %66 = getelementptr inbounds [257 x i8], [257 x i8]* %1, i64 0, i64 %65
  %67 = load i8, i8* %66, align 1, !tbaa !7
  %68 = icmp eq i8 %67, 0
  br i1 %68, label %78, label %69

69:                                               ; preds = %61, %69
  %70 = phi i64 [ %74, %69 ], [ %65, %61 ]
  %71 = phi i8 [ %76, %69 ], [ %67, %61 ]
  %72 = sext i8 %71 to i32
  %73 = call i32 @putchar(i32 %72)
  %74 = add i64 %70, 1
  %75 = getelementptr inbounds [257 x i8], [257 x i8]* %1, i64 0, i64 %74
  %76 = load i8, i8* %75, align 1, !tbaa !7
  %77 = icmp eq i8 %76, 0
  br i1 %77, label %78, label %69, !llvm.loop !11

78:                                               ; preds = %69, %61, %51
  call void @llvm.lifetime.end.p0i8(i64 257, i8* nonnull %9) #7
  call void @llvm.lifetime.end.p0i8(i64 257, i8* nonnull %8) #7
  call void @llvm.lifetime.end.p0i8(i64 257, i8* nonnull %7) #7
  call void @llvm.lifetime.end.p0i8(i64 257, i8* nonnull %6) #7
  ret i32 0
}

; Function Attrs: argmemonly mustprogress nofree nosync nounwind willreturn
declare void @llvm.lifetime.start.p0i8(i64 immarg, i8* nocapture) #1

; Function Attrs: argmemonly mustprogress nofree nounwind willreturn writeonly
declare void @llvm.memset.p0i8.i64(i8* nocapture writeonly, i8, i64, i1 immarg) #2

; Function Attrs: nofree nounwind
declare noundef i32 @__isoc99_scanf(i8* nocapture noundef readonly, ...) local_unnamed_addr #3

; Function Attrs: argmemonly mustprogress nofree nounwind readonly willreturn
declare i64 @strlen(i8* nocapture) local_unnamed_addr #4

; Function Attrs: argmemonly mustprogress nofree nounwind readonly willreturn
declare i32 @strcmp(i8* nocapture, i8* nocapture) local_unnamed_addr #4

; Function Attrs: nofree nounwind
declare noundef i32 @printf(i8* nocapture noundef readonly, ...) local_unnamed_addr #3

; Function Attrs: argmemonly mustprogress nofree nosync nounwind willreturn
declare void @llvm.lifetime.end.p0i8(i64 immarg, i8* nocapture) #1

; Function Attrs: nofree nounwind
declare noundef i32 @putchar(i32 noundef) local_unnamed_addr #5

; Function Attrs: argmemonly nofree nounwind willreturn
declare void @llvm.memcpy.p0i8.p0i8.i64(i8* noalias nocapture writeonly, i8* noalias nocapture readonly, i64, i1 immarg) #6


!llvm.module.flags = !{!0, !1, !2, !3}
!llvm.ident = !{!4}

!0 = !{i32 1, !"wchar_size", i32 4}
!1 = !{i32 7, !"PIC Level", i32 2}
!2 = !{i32 7, !"PIE Level", i32 2}
!3 = !{i32 7, !"uwtable", i32 1}
!4 = !{!"clang version 13.0.0"}
!5 = distinct !{!5, !6}
!6 = !{!"llvm.loop.mustprogress"}
!7 = !{!8, !8, i64 0}
!8 = !{!"omnipotent char", !9, i64 0}
!9 = !{!"Simple C/C++ TBAA"}
!10 = distinct !{!10, !6}
!11 = distinct !{!11, !6}
